; ModuleID = 'source-C-CXX/52/446.c'
source_filename = "source-C-CXX/52/446.c"
target datalayout = "e-m:e-p270:32:32-p271:32:32-p272:64:64-i64:64-f80:128-n8:16:32:64-S128"
target triple = "x86_64-pc-linux-gnu"

@.str = private unnamed_addr constant [3 x i8] c"%d\00", align 1
@.str.1 = private unnamed_addr constant [4 x i8] c",%d\00", align 1

; Function Attrs: nofree nounwind sspstrong uwtable
define dso_local void @main() local_unnamed_addr #0 {
  %1 = alloca i32, align 4
  %2 = alloca [300 x i32], align 16
  %3 = bitcast i32* %1 to i8*
  call void @llvm.lifetime.start.p0i8(i64 4, i8* nonnull %3) #3
  %4 = bitcast [300 x i32]* %2 to i8*
  call void @llvm.lifetime.start.p0i8(i64 1200, i8* nonnull %4) #3
  %5 = call i32 (i8*, ...) @__isoc99_scanf(i8* getelementptr inbounds ([3 x i8], [3 x i8]* @.str, i64 0, i64 0), i32* nonnull %1)
  %6 = load i32, i32* %1, align 4, !tbaa !5
  %7 = icmp slt i32 %6, 1
  br i1 %7, label %51, label %11

8:                                                ; preds = %11
  %9 = getelementptr inbounds [300 x i32], [300 x i32]* %2, i64 0, i64 1
  %10 = icmp slt i32 %16, 1
  br i1 %10, label %51, label %19

11:                                               ; preds = %0, %11
  %12 = phi i64 [ %15, %11 ], [ 1, %0 ]
  %13 = getelementptr inbounds [300 x i32], [300 x i32]* %2, i64 0, i64 %12
  %14 = call i32 (i8*, ...) @__isoc99_scanf(i8* getelementptr inbounds ([3 x i8], [3 x i8]* @.str, i64 0, i64 0), i32* nonnull %13)
  %15 = add nuw nsw i64 %12, 1
  %16 = load i32, i32* %1, align 4, !tbaa !5
  %17 = sext i32 %16 to i64
  %18 = icmp slt i64 %12, %17
  br i1 %18, label %11, label %8, !llvm.loop !9

19:                                               ; preds = %8, %46
  %20 = phi i64 [ %47, %46 ], [ 1, %8 ]
  %21 = icmp eq i64 %20, 1
  br i1 %21, label %28, label %22

22:                                               ; preds = %19
  %23 = getelementptr inbounds [300 x i32], [300 x i32]* %2, i64 0, i64 %20
  %24 = load i32, i32* %23, align 4, !tbaa !5
  br label %25

25:                                               ; preds = %39, %22
  %26 = phi i32 [ -1, %39 ], [ %24, %22 ]
  %27 = phi i64 [ %40, %39 ], [ 1, %22 ]
  br label %31

28:                                               ; preds = %19
  %29 = load i32, i32* %9, align 4, !tbaa !5
  %30 = call i32 (i8*, ...) @printf(i8* nonnull dereferenceable(1) getelementptr inbounds ([3 x i8], [3 x i8]* @.str, i64 0, i64 0), i32 %29)
  br label %46

31:                                               ; preds = %25, %36
  %32 = phi i64 [ %37, %36 ], [ %27, %25 ]
  %33 = getelementptr inbounds [300 x i32], [300 x i32]* %2, i64 0, i64 %32
  %34 = load i32, i32* %33, align 4, !tbaa !5
  %35 = icmp eq i32 %26, %34
  br i1 %35, label %39, label %36

36:                                               ; preds = %31
  %37 = add nuw nsw i64 %32, 1
  %38 = icmp eq i64 %37, %20
  br i1 %38, label %42, label %31, !llvm.loop !11

39:                                               ; preds = %31
  store i32 -1, i32* %23, align 4, !tbaa !5
  %40 = add nuw nsw i64 %32, 1
  %41 = icmp eq i64 %40, %20
  br i1 %41, label %46, label %25, !llvm.loop !11

42:                                               ; preds = %36
  %43 = icmp eq i32 %26, -1
  br i1 %43, label %46, label %44

44:                                               ; preds = %42
  %45 = call i32 (i8*, ...) @printf(i8* nonnull dereferenceable(1) getelementptr inbounds ([4 x i8], [4 x i8]* @.str.1, i64 0, i64 0), i32 %26)
  br label %46

46:                                               ; preds = %39, %28, %44, %42
  %47 = add nuw nsw i64 %20, 1
  %48 = load i32, i32* %1, align 4, !tbaa !5
  %49 = sext i32 %48 to i64
  %50 = icmp slt i64 %20, %49
  br i1 %50, label %19, label %51, !llvm.loop !12

51:                                               ; preds = %46, %0, %8
  call void @llvm.lifetime.end.p0i8(i64 1200, i8* nonnull %4) #3
  call void @llvm.lifetime.end.p0i8(i64 4, i8* nonnull %3) #3
  ret void
}

; Function Attrs: argmemonly mustprogress nofree nosync nounwind willreturn
declare void @llvm.lifetime.start.p0i8(i64 immarg, i8* nocapture) #1

; Function Attrs: nofree nounwind
declare noundef i32 @__isoc99_scanf(i8* nocapture noundef readonly, ...) local_unnamed_addr #2

; Function Attrs: nofree nounwind
declare noundef i32 @printf(i8* nocapture noundef readonly, ...) local_unnamed_addr #2

; Function Attrs: argmemonly mustprogress nofree nosync nounwind willreturn
declare void @llvm.lifetime.end.p0i8(i64 immarg, i8* nocapture) #1


!llvm.module.flags = !{!0, !1, !2, !3}
!llvm.ident = !{!4}

!0 = !{i32 1, !"wchar_size", i32 4}
!1 = !{i32 7, !"PIC Level", i32 2}
!2 = !{i32 7, !"PIE Level", i32 2}
!3 = !{i32 7, !"uwtable", i32 1}
!4 = !{!"clang version 13.0.0"}
!5 = !{!6, !6, i64 0}
!6 = !{!"int", !7, i64 0}
!7 = !{!"omnipotent char", !8, i64 0}
!8 = !{!"Simple C/C++ TBAA"}
!9 = distinct !{!9, !10}
!10 = !{!"llvm.loop.mustprogress"}
!11 = distinct !{!11, !10}
!12 = distinct !{!12, !10}
